; ModuleID = 'source-C-CXX/14/2216.cpp'
source_filename = "source-C-CXX/14/2216.cpp"
target datalayout = "e-m:e-p270:32:32-p271:32:32-p272:64:64-i64:64-f80:128-n8:16:32:64-S128"
target triple = "x86_64-pc-linux-gnu"

%"class.std::ios_base::Init" = type { i8 }
%"class.std::basic_istream" = type { i32 (...)**, i64, %"class.std::basic_ios" }
%"class.std::basic_ios" = type { %"class.std::ios_base", %"class.std::basic_ostream"*, i8, i8, %"class.std::basic_streambuf"*, %"class.std::ctype"*, %"class.std::num_put"*, %"class.std::num_get"* }
%"class.std::ios_base" = type { i32 (...)**, i64, i64, i32, i32, i32, %"struct.std::ios_base::_Callback_list"*, %"struct.std::ios_base::_Words", [8 x %"struct.std::ios_base::_Words"], i32, %"struct.std::ios_base::_Words"*, %"class.std::locale" }
%"struct.std::ios_base::_Callback_list" = type { %"struct.std::ios_base::_Callback_list"*, void (i32, %"class.std::ios_base"*, i32)*, i32, i32 }
%"struct.std::ios_base::_Words" = type { i8*, i64 }
%"class.std::locale" = type { %"class.std::locale::_Impl"* }
%"class.std::locale::_Impl" = type { i32, %"class.std::locale::facet"**, i64, %"class.std::locale::facet"**, i8** }
%"class.std::locale::facet" = type <{ i32 (...)**, i32, [4 x i8] }>
%"class.std::basic_ostream" = type { i32 (...)**, %"class.std::basic_ios" }
%"class.std::basic_streambuf" = type { i32 (...)**, i8*, i8*, i8*, i8*, i8*, i8*, %"class.std::locale" }
%"class.std::ctype" = type <{ %"class.std::locale::facet.base", [4 x i8], %struct.__locale_struct*, i8, [7 x i8], i32*, i32*, i16*, i8, [256 x i8], [256 x i8], i8, [6 x i8] }>
%"class.std::locale::facet.base" = type <{ i32 (...)**, i32 }>
%struct.__locale_struct = type { [13 x %struct.__locale_data*], i16*, i32*, i32*, [13 x i8*] }
%struct.__locale_data = type opaque
%"class.std::num_put" = type { %"class.std::locale::facet.base", [4 x i8] }
%"class.std::num_get" = type { %"class.std::locale::facet.base", [4 x i8] }

@_ZStL8__ioinit = internal global %"class.std::ios_base::Init" zeroinitializer, align 1
@__dso_handle = external hidden global i8
@_ZSt3cin = external global %"class.std::basic_istream", align 8
@_ZSt4cout = external global %"class.std::basic_ostream", align 8
@llvm.global_ctors = appending global [1 x { i32, void ()*, i8* }] [{ i32, void ()*, i8* } { i32 65535, void ()* @_GLOBAL__sub_I_2216.cpp, i8* null }]

declare void @_ZNSt8ios_base4InitC1Ev(%"class.std::ios_base::Init"* nonnull align 1 dereferenceable(1)) unnamed_addr #0

; Function Attrs: nounwind
declare void @_ZNSt8ios_base4InitD1Ev(%"class.std::ios_base::Init"* nonnull align 1 dereferenceable(1)) unnamed_addr #1

; Function Attrs: nofree nounwind
declare i32 @__cxa_atexit(void (i8*)*, i8*, i8*) local_unnamed_addr #2

; Function Attrs: mustprogress norecurse sspstrong uwtable
define dso_local i32 @main() local_unnamed_addr #3 {
  %1 = alloca [500 x [500 x i32]], align 16
  %2 = alloca i32, align 4
  %3 = bitcast [500 x [500 x i32]]* %1 to i8*
  call void @llvm.lifetime.start.p0i8(i64 1000000, i8* nonnull %3) #7
  %4 = bitcast i32* %2 to i8*
  call void @llvm.lifetime.start.p0i8(i64 4, i8* nonnull %4) #7
  %5 = call nonnull align 8 dereferenceable(16) %"class.std::basic_istream"* @_ZNSirsERi(%"class.std::basic_istream"* nonnull align 8 dereferenceable(16) @_ZSt3cin, i32* nonnull align 4 dereferenceable(4) %2)
  %6 = load i32, i32* %2, align 4, !tbaa !5
  %7 = icmp sgt i32 %6, 0
  br i1 %7, label %8, label %77

8:                                                ; preds = %0, %50
  %9 = phi i32 [ %51, %50 ], [ %6, %0 ]
  %10 = phi i64 [ %53, %50 ], [ 0, %0 ]
  %11 = mul i64 %10, 500
  %12 = and i64 %11, 4294967292
  %13 = getelementptr inbounds [500 x [500 x i32]], [500 x [500 x i32]]* %1, i64 0, i64 0, i64 %12
  %14 = icmp sgt i32 %9, 0
  br i1 %14, label %42, label %50

15:                                               ; preds = %50
  %16 = icmp sgt i32 %51, 0
  br i1 %16, label %17, label %77

17:                                               ; preds = %15
  %18 = zext i32 %51 to i64
  br label %19

19:                                               ; preds = %17, %36
  %20 = phi i32 [ %40, %36 ], [ 0, %17 ]
  %21 = phi i32 [ %38, %36 ], [ undef, %17 ]
  %22 = phi i32 [ %37, %36 ], [ undef, %17 ]
  %23 = mul nsw i32 %20, 500
  %24 = sext i32 %23 to i64
  %25 = getelementptr inbounds [500 x [500 x i32]], [500 x [500 x i32]]* %1, i64 0, i64 0, i64 %24
  br label %26

26:                                               ; preds = %19, %31
  %27 = phi i64 [ 0, %19 ], [ %32, %31 ]
  %28 = getelementptr inbounds i32, i32* %25, i64 %27
  %29 = load i32, i32* %28, align 4, !tbaa !5
  %30 = icmp eq i32 %29, 0
  br i1 %30, label %34, label %31

31:                                               ; preds = %26
  %32 = add nuw nsw i64 %27, 1
  %33 = icmp eq i64 %32, %18
  br i1 %33, label %36, label %26, !llvm.loop !9

34:                                               ; preds = %26
  %35 = trunc i64 %27 to i32
  br label %36

36:                                               ; preds = %31, %34
  %37 = phi i32 [ %20, %34 ], [ %22, %31 ]
  %38 = phi i32 [ %35, %34 ], [ %21, %31 ]
  %39 = phi i32 [ 9999, %34 ], [ %20, %31 ]
  %40 = add nsw i32 %39, 1
  %41 = icmp slt i32 %40, %51
  br i1 %41, label %19, label %55, !llvm.loop !11

42:                                               ; preds = %8, %42
  %43 = phi i64 [ %46, %42 ], [ 0, %8 ]
  %44 = getelementptr inbounds i32, i32* %13, i64 %43
  %45 = call nonnull align 8 dereferenceable(16) %"class.std::basic_istream"* @_ZNSirsERi(%"class.std::basic_istream"* nonnull align 8 dereferenceable(16) @_ZSt3cin, i32* nonnull align 4 dereferenceable(4) %44)
  %46 = add nuw nsw i64 %43, 1
  %47 = load i32, i32* %2, align 4, !tbaa !5
  %48 = sext i32 %47 to i64
  %49 = icmp slt i64 %46, %48
  br i1 %49, label %42, label %50, !llvm.loop !12

50:                                               ; preds = %42, %8
  %51 = phi i32 [ %9, %8 ], [ %47, %42 ]
  %52 = sext i32 %51 to i64
  %53 = add nuw nsw i64 %10, 1
  %54 = icmp slt i64 %53, %52
  br i1 %54, label %8, label %15, !llvm.loop !13

55:                                               ; preds = %36
  br i1 %16, label %56, label %77

56:                                               ; preds = %55
  %57 = zext i32 %51 to i64
  br label %58

58:                                               ; preds = %56, %75
  %59 = phi i32 [ %60, %75 ], [ %51, %56 ]
  %60 = add nsw i32 %59, -1
  %61 = mul nsw i32 %60, 500
  %62 = sext i32 %61 to i64
  %63 = getelementptr inbounds [500 x [500 x i32]], [500 x [500 x i32]]* %1, i64 0, i64 0, i64 %62
  br label %64

64:                                               ; preds = %58, %69
  %65 = phi i64 [ %57, %58 ], [ %74, %69 ]
  %66 = phi i32 [ %51, %58 ], [ %67, %69 ]
  %67 = add nsw i32 %66, -1
  %68 = icmp sgt i64 %65, 0
  br i1 %68, label %69, label %75

69:                                               ; preds = %64
  %70 = zext i32 %67 to i64
  %71 = getelementptr inbounds i32, i32* %63, i64 %70
  %72 = load i32, i32* %71, align 4, !tbaa !5
  %73 = icmp eq i32 %72, 0
  %74 = add nsw i64 %65, -1
  br i1 %73, label %77, label %64, !llvm.loop !15

75:                                               ; preds = %64
  %76 = icmp sgt i32 %59, 1
  br i1 %76, label %58, label %77, !llvm.loop !16

77:                                               ; preds = %75, %69, %15, %0, %55
  %78 = phi i32 [ %38, %55 ], [ undef, %0 ], [ undef, %15 ], [ %38, %69 ], [ %38, %75 ]
  %79 = phi i32 [ %37, %55 ], [ undef, %0 ], [ undef, %15 ], [ %37, %69 ], [ %37, %75 ]
  %80 = phi i32 [ undef, %55 ], [ undef, %0 ], [ undef, %15 ], [ %60, %69 ], [ undef, %75 ]
  %81 = phi i32 [ undef, %55 ], [ undef, %0 ], [ undef, %15 ], [ %67, %69 ], [ undef, %75 ]
  %82 = xor i32 %79, -1
  %83 = add i32 %80, %82
  %84 = xor i32 %78, -1
  %85 = add i32 %81, %84
  %86 = mul nsw i32 %85, %83
  %87 = call nonnull align 8 dereferenceable(8) %"class.std::basic_ostream"* @_ZNSolsEi(%"class.std::basic_ostream"* nonnull align 8 dereferenceable(8) @_ZSt4cout, i32 %86)
  %88 = bitcast %"class.std::basic_ostream"* %87 to i8**
  %89 = load i8*, i8** %88, align 8, !tbaa !17
  %90 = getelementptr i8, i8* %89, i64 -24
  %91 = bitcast i8* %90 to i64*
  %92 = load i64, i64* %91, align 8
  %93 = bitcast %"class.std::basic_ostream"* %87 to i8*
  %94 = add nsw i64 %92, 240
  %95 = getelementptr inbounds i8, i8* %93, i64 %94
  %96 = bitcast i8* %95 to %"class.std::ctype"**
  %97 = load %"class.std::ctype"*, %"class.std::ctype"** %96, align 8, !tbaa !19
  %98 = icmp eq %"class.std::ctype"* %97, null
  br i1 %98, label %99, label %100

99:                                               ; preds = %77
  call void @_ZSt16__throw_bad_castv() #8
  unreachable

100:                                              ; preds = %77
  %101 = getelementptr inbounds %"class.std::ctype", %"class.std::ctype"* %97, i64 0, i32 8
  %102 = load i8, i8* %101, align 8, !tbaa !23
  %103 = icmp eq i8 %102, 0
  br i1 %103, label %107, label %104

104:                                              ; preds = %100
  %105 = getelementptr inbounds %"class.std::ctype", %"class.std::ctype"* %97, i64 0, i32 9, i64 10
  %106 = load i8, i8* %105, align 1, !tbaa !25
  br label %113

107:                                              ; preds = %100
  call void @_ZNKSt5ctypeIcE13_M_widen_initEv(%"class.std::ctype"* nonnull align 8 dereferenceable(570) %97)
  %108 = bitcast %"class.std::ctype"* %97 to i8 (%"class.std::ctype"*, i8)***
  %109 = load i8 (%"class.std::ctype"*, i8)**, i8 (%"class.std::ctype"*, i8)*** %108, align 8, !tbaa !17
  %110 = getelementptr inbounds i8 (%"class.std::ctype"*, i8)*, i8 (%"class.std::ctype"*, i8)** %109, i64 6
  %111 = load i8 (%"class.std::ctype"*, i8)*, i8 (%"class.std::ctype"*, i8)** %110, align 8
  %112 = call signext i8 %111(%"class.std::ctype"* nonnull align 8 dereferenceable(570) %97, i8 signext 10)
  br label %113

113:                                              ; preds = %104, %107
  %114 = phi i8 [ %106, %104 ], [ %112, %107 ]
  %115 = call nonnull align 8 dereferenceable(8) %"class.std::basic_ostream"* @_ZNSo3putEc(%"class.std::basic_ostream"* nonnull align 8 dereferenceable(8) %87, i8 signext %114)
  %116 = call nonnull align 8 dereferenceable(8) %"class.std::basic_ostream"* @_ZNSo5flushEv(%"class.std::basic_ostream"* nonnull align 8 dereferenceable(8) %115)
  call void @llvm.lifetime.end.p0i8(i64 4, i8* nonnull %4) #7
  call void @llvm.lifetime.end.p0i8(i64 1000000, i8* nonnull %3) #7
  ret i32 0
}

; Function Attrs: argmemonly mustprogress nofree nosync nounwind willreturn
declare void @llvm.lifetime.start.p0i8(i64 immarg, i8* nocapture) #4

declare nonnull align 8 dereferenceable(16) %"class.std::basic_istream"* @_ZNSirsERi(%"class.std::basic_istream"* nonnull align 8 dereferenceable(16), i32* nonnull align 4 dereferenceable(4)) local_unnamed_addr #0

declare nonnull align 8 dereferenceable(8) %"class.std::basic_ostream"* @_ZNSolsEi(%"class.std::basic_ostream"* nonnull align 8 dereferenceable(8), i32) local_unnamed_addr #0

; Function Attrs: argmemonly mustprogress nofree nosync nounwind willreturn
declare void @llvm.lifetime.end.p0i8(i64 immarg, i8* nocapture) #4

declare nonnull align 8 dereferenceable(8) %"class.std::basic_ostream"* @_ZNSo3putEc(%"class.std::basic_ostream"* nonnull align 8 dereferenceable(8), i8 signext) local_unnamed_addr #0

declare nonnull align 8 dereferenceable(8) %"class.std::basic_ostream"* @_ZNSo5flushEv(%"class.std::basic_ostream"* nonnull align 8 dereferenceable(8)) local_unnamed_addr #0

; Function Attrs: noreturn
declare void @_ZSt16__throw_bad_castv() local_unnamed_addr #5

declare void @_ZNKSt5ctypeIcE13_M_widen_initEv(%"class.std::ctype"* nonnull align 8 dereferenceable(570)) local_unnamed_addr #0

; Function Attrs: sspstrong uwtable
define internal void @_GLOBAL__sub_I_2216.cpp() #6 section ".text.startup" {
  tail call void @_ZNSt8ios_base4InitC1Ev(%"class.std::ios_base::Init"* nonnull align 1 dereferenceable(1) @_ZStL8__ioinit)
  %1 = tail call i32 @__cxa_atexit(void (i8*)* bitcast (void (%"class.std::ios_base::Init"*)* @_ZNSt8ios_base4InitD1Ev to void (i8*)*), i8* getelementptr inbounds (%"class.std::ios_base::Init", %"class.std::ios_base::Init"* @_ZStL8__ioinit, i64 0, i32 0), i8* nonnull @__dso_handle) #7
  ret void
}


!llvm.module.flags = !{!0, !1, !2, !3}
!llvm.ident = !{!4}

!0 = !{i32 1, !"wchar_size", i32 4}
!1 = !{i32 7, !"PIC Level", i32 2}
!2 = !{i32 7, !"PIE Level", i32 2}
!3 = !{i32 7, !"uwtable", i32 1}
!4 = !{!"clang version 13.0.0"}
!5 = !{!6, !6, i64 0}
!6 = !{!"int", !7, i64 0}
!7 = !{!"omnipotent char", !8, i64 0}
!8 = !{!"Simple C++ TBAA"}
!9 = distinct !{!9, !10}
!10 = !{!"llvm.loop.mustprogress"}
!11 = distinct !{!11, !10}
!12 = distinct !{!12, !10}
!13 = distinct !{!13, !10, !14}
!14 = !{!"llvm.loop.unswitch.partial.disable"}
!15 = distinct !{!15, !10}
!16 = distinct !{!16, !10}
!17 = !{!18, !18, i64 0}
!18 = !{!"vtable pointer", !8, i64 0}
!19 = !{!20, !21, i64 240}
!20 = !{!"_ZTSSt9basic_iosIcSt11char_traitsIcEE", !21, i64 216, !7, i64 224, !22, i64 225, !21, i64 232, !21, i64 240, !21, i64 248, !21, i64 256}
!21 = !{!"any pointer", !7, i64 0}
!22 = !{!"bool", !7, i64 0}
!23 = !{!24, !7, i64 56}
!24 = !{!"_ZTSSt5ctypeIcE", !21, i64 16, !22, i64 24, !21, i64 32, !21, i64 40, !21, i64 48, !7, i64 56, !7, i64 57, !7, i64 313, !7, i64 569}
!25 = !{!7, !7, i64 0}
